
stm32f411ceu6-1.elf:     file format elf32-littlearm

Sections:
Idx Name          Size      VMA       LMA       File off  Algn
  0 .isr_vector   00000000  08000000  08000000  0002042c  2**0
                  CONTENTS
  1 .text         00000128  08000000  08000000  00010000  2**2
                  CONTENTS, ALLOC, LOAD, READONLY, CODE
  2 .rodata       00000004  08000128  08000128  00010128  2**2
                  CONTENTS, ALLOC, LOAD, READONLY, DATA
  3 .ARM.extab    00000000  0800012c  0800012c  0002042c  2**0
                  CONTENTS
  4 .ARM          00000000  0800012c  0800012c  0002042c  2**0
                  CONTENTS
  5 .preinit_array 00000000  0800012c  0800012c  0002042c  2**0
                  CONTENTS, ALLOC, LOAD, DATA
  6 .init_array   00000008  0800012c  0800012c  0001012c  2**2
                  CONTENTS, ALLOC, LOAD, DATA
  7 .fini_array   00000004  08000134  08000134  00010134  2**2
                  CONTENTS, ALLOC, LOAD, DATA
  8 .data         0000042c  20000000  08000138  00020000  2**3
                  CONTENTS, ALLOC, LOAD, DATA
  9 .bss          00000020  2000042c  08000564  0002042c  2**2
                  ALLOC
 10 ._user_heap_stack 00000604  2000044c  08000564  0002044c  2**0
                  ALLOC
 11 .ARM.attributes 00000030  00000000  00000000  0002042c  2**0
                  CONTENTS, READONLY
 12 .debug_frame  00000194  00000000  00000000  0002045c  2**2
                  CONTENTS, READONLY, DEBUGGING, OCTETS

Disassembly of section .text:

08000000 <__do_global_dtors_aux>:
 8000000:	b510      	push	{r4, lr}
 8000002:	4c05      	ldr	r4, [pc, #20]	; (8000018 <__do_global_dtors_aux+0x18>)
 8000004:	7823      	ldrb	r3, [r4, #0]
 8000006:	b933      	cbnz	r3, 8000016 <__do_global_dtors_aux+0x16>
 8000008:	4b04      	ldr	r3, [pc, #16]	; (800001c <__do_global_dtors_aux+0x1c>)
 800000a:	b113      	cbz	r3, 8000012 <__do_global_dtors_aux+0x12>
 800000c:	4804      	ldr	r0, [pc, #16]	; (8000020 <__do_global_dtors_aux+0x20>)
 800000e:	f3af 8000 	nop.w
 8000012:	2301      	movs	r3, #1
 8000014:	7023      	strb	r3, [r4, #0]
 8000016:	bd10      	pop	{r4, pc}
 8000018:	2000042c 	.word	0x2000042c
 800001c:	00000000 	.word	0x00000000
 8000020:	08000110 	.word	0x08000110

08000024 <frame_dummy>:
 8000024:	b508      	push	{r3, lr}
 8000026:	4b03      	ldr	r3, [pc, #12]	; (8000034 <frame_dummy+0x10>)
 8000028:	b11b      	cbz	r3, 8000032 <frame_dummy+0xe>
 800002a:	4903      	ldr	r1, [pc, #12]	; (8000038 <frame_dummy+0x14>)
 800002c:	4803      	ldr	r0, [pc, #12]	; (800003c <frame_dummy+0x18>)
 800002e:	f3af 8000 	nop.w
 8000032:	bd08      	pop	{r3, pc}
 8000034:	00000000 	.word	0x00000000
 8000038:	20000430 	.word	0x20000430
 800003c:	08000110 	.word	0x08000110

08000040 <register_fini>:
 8000040:	4b02      	ldr	r3, [pc, #8]	; (800004c <register_fini+0xc>)
 8000042:	b113      	cbz	r3, 800004a <register_fini+0xa>
 8000044:	4802      	ldr	r0, [pc, #8]	; (8000050 <register_fini+0x10>)
 8000046:	f000 b805 	b.w	8000054 <atexit>
 800004a:	4770      	bx	lr
 800004c:	00000000 	.word	0x00000000
 8000050:	08000061 	.word	0x08000061

08000054 <atexit>:
 8000054:	2300      	movs	r3, #0
 8000056:	4601      	mov	r1, r0
 8000058:	461a      	mov	r2, r3
 800005a:	4618      	mov	r0, r3
 800005c:	f000 b816 	b.w	800008c <__register_exitproc>

08000060 <__libc_fini_array>:
 8000060:	b538      	push	{r3, r4, r5, lr}
 8000062:	4d07      	ldr	r5, [pc, #28]	; (8000080 <__libc_fini_array+0x20>)
 8000064:	4c07      	ldr	r4, [pc, #28]	; (8000084 <__libc_fini_array+0x24>)
 8000066:	1b64      	subs	r4, r4, r5
 8000068:	10a4      	asrs	r4, r4, #2
 800006a:	b91c      	cbnz	r4, 8000074 <__libc_fini_array+0x14>
 800006c:	e8bd 4038 	ldmia.w	sp!, {r3, r4, r5, lr}
 8000070:	f000 b854 	b.w	800011c <_fini>
 8000074:	3c01      	subs	r4, #1
 8000076:	f855 3024 	ldr.w	r3, [r5, r4, lsl #2]
 800007a:	4798      	blx	r3
 800007c:	e7f5      	b.n	800006a <__libc_fini_array+0xa>
 800007e:	bf00      	nop
 8000080:	08000134 	.word	0x08000134
 8000084:	08000138 	.word	0x08000138

08000088 <__retarget_lock_acquire_recursive>:
 8000088:	4770      	bx	lr

0800008a <__retarget_lock_release_recursive>:
 800008a:	4770      	bx	lr

0800008c <__register_exitproc>:
 800008c:	e92d 47f0 	stmdb	sp!, {r4, r5, r6, r7, r8, r9, sl, lr}
 8000090:	f8df a078 	ldr.w	sl, [pc, #120]	; 800010c <__register_exitproc+0x80>
 8000094:	4606      	mov	r6, r0
 8000096:	f8da 0000 	ldr.w	r0, [sl]
 800009a:	4698      	mov	r8, r3
 800009c:	460f      	mov	r7, r1
 800009e:	4691      	mov	r9, r2
 80000a0:	f7ff fff2 	bl	8000088 <__retarget_lock_acquire_recursive>
 80000a4:	4b18      	ldr	r3, [pc, #96]	; (8000108 <__register_exitproc+0x7c>)
 80000a6:	681b      	ldr	r3, [r3, #0]
 80000a8:	f8d3 4148 	ldr.w	r4, [r3, #328]	; 0x148
 80000ac:	b91c      	cbnz	r4, 80000b6 <__register_exitproc+0x2a>
 80000ae:	f503 74a6 	add.w	r4, r3, #332	; 0x14c
 80000b2:	f8c3 4148 	str.w	r4, [r3, #328]	; 0x148
 80000b6:	6865      	ldr	r5, [r4, #4]
 80000b8:	f8da 0000 	ldr.w	r0, [sl]
 80000bc:	2d1f      	cmp	r5, #31
 80000be:	dd05      	ble.n	80000cc <__register_exitproc+0x40>
 80000c0:	f7ff ffe3 	bl	800008a <__retarget_lock_release_recursive>
 80000c4:	f04f 30ff 	mov.w	r0, #4294967295
 80000c8:	e8bd 87f0 	ldmia.w	sp!, {r4, r5, r6, r7, r8, r9, sl, pc}
 80000cc:	b19e      	cbz	r6, 80000f6 <__register_exitproc+0x6a>
 80000ce:	eb04 0185 	add.w	r1, r4, r5, lsl #2
 80000d2:	2201      	movs	r2, #1
 80000d4:	f8c1 9088 	str.w	r9, [r1, #136]	; 0x88
 80000d8:	f8d4 3188 	ldr.w	r3, [r4, #392]	; 0x188
 80000dc:	40aa      	lsls	r2, r5
 80000de:	4313      	orrs	r3, r2
 80000e0:	f8c4 3188 	str.w	r3, [r4, #392]	; 0x188
 80000e4:	2e02      	cmp	r6, #2
 80000e6:	f8c1 8108 	str.w	r8, [r1, #264]	; 0x108
 80000ea:	bf02      	ittt	eq
 80000ec:	f8d4 318c 	ldreq.w	r3, [r4, #396]	; 0x18c
 80000f0:	4313      	orreq	r3, r2
 80000f2:	f8c4 318c 	streq.w	r3, [r4, #396]	; 0x18c
 80000f6:	1c6b      	adds	r3, r5, #1
 80000f8:	3502      	adds	r5, #2
 80000fa:	6063      	str	r3, [r4, #4]
 80000fc:	f844 7025 	str.w	r7, [r4, r5, lsl #2]
 8000100:	f7ff ffc3 	bl	800008a <__retarget_lock_release_recursive>
 8000104:	2000      	movs	r0, #0
 8000106:	e7df      	b.n	80000c8 <__register_exitproc+0x3c>
 8000108:	08000128 	.word	0x08000128
 800010c:	20000428 	.word	0x20000428

08000110 <_init>:
 8000110:	b5f8      	push	{r3, r4, r5, r6, r7, lr}
 8000112:	bf00      	nop
 8000114:	bcf8      	pop	{r3, r4, r5, r6, r7}
 8000116:	bc08      	pop	{r3}
 8000118:	469e      	mov	lr, r3
 800011a:	4770      	bx	lr

0800011c <_fini>:
 800011c:	b5f8      	push	{r3, r4, r5, r6, r7, lr}
 800011e:	bf00      	nop
 8000120:	bcf8      	pop	{r3, r4, r5, r6, r7}
 8000122:	bc08      	pop	{r3}
 8000124:	469e      	mov	lr, r3
 8000126:	4770      	bx	lr
